; Function Attrs: nounwind uwtable
define hidden range(i64 0, 2) i64 @bn_sub_words(ptr noundef %rp, ptr noundef %ap, ptr noundef %bp, i32 noundef %n) local_unnamed_addr #0 {
entry:
  %cmp = icmp slt i32 %n, 1
  br i1 %cmp, label %return, label %if.end

if.end:                                           ; preds = %entry
  %0 = tail call { i64, i32, i64 } asm sideeffect "\09subq\09$0,$0\09\09\0A\09jmp\091f\09\09\0A.p2align 4\09\09\09\0A1:\09movq\09($4,$2,8),$0\09\0A\09sbbq\09($5,$2,8),$0\09\0A\09movq\09$0,($3,$2,8)\09\0A\09lea\091($2),$2\09\0A\09loop\091b\09\09\0A\09sbbq\09$0,$0\09\09\0A", "=&r,={cx},=r,r,r,r,1,2,~{cc},~{memory},~{dirflag},~{fpsr},~{flags}"(ptr %rp, ptr %ap, ptr %bp, i32 %n, i64 0) #4, !srcloc !54
  %asmresult = extractvalue { i64, i32, i64 } %0, 0
  %and = and i64 %asmresult, 1
  br label %return

return:                                           ; preds = %entry, %if.end
  %retval.0 = phi i64 [ %and, %if.end ], [ 0, %entry ]
  ret i64 %retval.0
}